; ModuleID = '29/1421.c'
source_filename = "29/1421.c"
target datalayout = "e-m:e-p270:32:32-p271:32:32-p272:64:64-i64:64-f80:128-n8:16:32:64-S128"
target triple = "x86_64-pc-linux-gnu"

@.str = private unnamed_addr constant [3 x i8] c"%d\00", align 1
@.str.1 = private unnamed_addr constant [7 x i8] c"2.000\0A\00", align 1
@.str.2 = private unnamed_addr constant [7 x i8] c"3.500\0A\00", align 1
@.str.3 = private unnamed_addr constant [6 x i8] c"%.3f\0A\00", align 1

; Function Attrs: noinline nounwind uwtable
define dso_local i32 @main() #0 {
  %1 = alloca i32, align 4
  %2 = alloca i32, align 4
  %3 = alloca i8*, align 8
  %4 = alloca i64, align 8
  %5 = alloca i32, align 4
  %6 = alloca i32, align 4
  %7 = alloca i8*, align 8
  %8 = alloca i64, align 8
  %9 = alloca i64, align 8
  %10 = alloca i64, align 8
  %11 = alloca i32, align 4
  %12 = alloca float, align 4
  store i32 0, i32* %1, align 4
  %13 = call i32 (i8*, ...) @__isoc99_scanf(i8* getelementptr inbounds ([3 x i8], [3 x i8]* @.str, i64 0, i64 0), i32* %2)
  %14 = load i32, i32* %2, align 4
  %15 = zext i32 %14 to i64
  %16 = call i8* @llvm.stacksave()
  store i8* %16, i8** %3, align 8
  %17 = alloca i32, i64 %15, align 16
  store i64 %15, i64* %4, align 8
  store i32 0, i32* %5, align 4
  br label %18

18:                                               ; preds = %27, %0
  %19 = load i32, i32* %5, align 4
  %20 = load i32, i32* %2, align 4
  %21 = icmp slt i32 %19, %20
  br i1 %21, label %22, label %30

22:                                               ; preds = %18
  %23 = load i32, i32* %5, align 4
  %24 = sext i32 %23 to i64
  %25 = getelementptr inbounds i32, i32* %17, i64 %24
  %26 = call i32 (i8*, ...) @__isoc99_scanf(i8* getelementptr inbounds ([3 x i8], [3 x i8]* @.str, i64 0, i64 0), i32* %25)
  br label %27

27:                                               ; preds = %22
  %28 = load i32, i32* %5, align 4
  %29 = add nsw i32 %28, 1
  store i32 %29, i32* %5, align 4
  br label %18

30:                                               ; preds = %18
  store i32 0, i32* %5, align 4
  br label %31

31:                                               ; preds = %127, %30
  %32 = load i32, i32* %5, align 4
  %33 = load i32, i32* %2, align 4
  %34 = icmp slt i32 %32, %33
  br i1 %34, label %35, label %130

35:                                               ; preds = %31
  %36 = load i32, i32* %5, align 4
  %37 = sext i32 %36 to i64
  %38 = getelementptr inbounds i32, i32* %17, i64 %37
  %39 = load i32, i32* %38, align 4
  store i32 %39, i32* %6, align 4
  %40 = load i32, i32* %6, align 4
  %41 = icmp eq i32 %40, 1
  br i1 %41, label %42, label %44

42:                                               ; preds = %35
  %43 = call i32 (i8*, ...) @printf(i8* getelementptr inbounds ([7 x i8], [7 x i8]* @.str.1, i64 0, i64 0))
  br label %44

44:                                               ; preds = %42, %35
  %45 = load i32, i32* %6, align 4
  %46 = icmp eq i32 %45, 2
  br i1 %46, label %47, label %49

47:                                               ; preds = %44
  %48 = call i32 (i8*, ...) @printf(i8* getelementptr inbounds ([7 x i8], [7 x i8]* @.str.2, i64 0, i64 0))
  br label %49

49:                                               ; preds = %47, %44
  %50 = load i32, i32* %6, align 4
  %51 = icmp sgt i32 %50, 2
  br i1 %51, label %52, label %126

52:                                               ; preds = %49
  %53 = load i32, i32* %6, align 4
  %54 = zext i32 %53 to i64
  %55 = call i8* @llvm.stacksave()
  store i8* %55, i8** %7, align 8
  %56 = alloca float, i64 %54, align 16
  store i64 %54, i64* %8, align 8
  %57 = load i32, i32* %6, align 4
  %58 = zext i32 %57 to i64
  %59 = alloca float, i64 %58, align 16
  store i64 %58, i64* %9, align 8
  %60 = load i32, i32* %6, align 4
  %61 = zext i32 %60 to i64
  %62 = alloca float, i64 %61, align 16
  store i64 %61, i64* %10, align 8
  %63 = getelementptr inbounds float, float* %56, i64 0
  store float 2.000000e+00, float* %63, align 16
  %64 = getelementptr inbounds float, float* %56, i64 1
  store float 3.000000e+00, float* %64, align 4
  %65 = getelementptr inbounds float, float* %59, i64 0
  store float 1.000000e+00, float* %65, align 16
  %66 = getelementptr inbounds float, float* %59, i64 1
  store float 2.000000e+00, float* %66, align 4
  store float 3.500000e+00, float* %12, align 4
  store i32 2, i32* %11, align 4
  br label %67

67:                                               ; preds = %118, %52
  %68 = load i32, i32* %11, align 4
  %69 = load i32, i32* %6, align 4
  %70 = icmp slt i32 %68, %69
  br i1 %70, label %71, label %121

71:                                               ; preds = %67
  %72 = load i32, i32* %11, align 4
  %73 = sub nsw i32 %72, 1
  %74 = sext i32 %73 to i64
  %75 = getelementptr inbounds float, float* %56, i64 %74
  %76 = load float, float* %75, align 4
  %77 = load i32, i32* %11, align 4
  %78 = sub nsw i32 %77, 2
  %79 = sext i32 %78 to i64
  %80 = getelementptr inbounds float, float* %56, i64 %79
  %81 = load float, float* %80, align 4
  %82 = fadd float %76, %81
  %83 = load i32, i32* %11, align 4
  %84 = sext i32 %83 to i64
  %85 = getelementptr inbounds float, float* %56, i64 %84
  store float %82, float* %85, align 4
  %86 = load i32, i32* %11, align 4
  %87 = sub nsw i32 %86, 1
  %88 = sext i32 %87 to i64
  %89 = getelementptr inbounds float, float* %59, i64 %88
  %90 = load float, float* %89, align 4
  %91 = load i32, i32* %11, align 4
  %92 = sub nsw i32 %91, 2
  %93 = sext i32 %92 to i64
  %94 = getelementptr inbounds float, float* %59, i64 %93
  %95 = load float, float* %94, align 4
  %96 = fadd float %90, %95
  %97 = load i32, i32* %11, align 4
  %98 = sext i32 %97 to i64
  %99 = getelementptr inbounds float, float* %59, i64 %98
  store float %96, float* %99, align 4
  %100 = load i32, i32* %11, align 4
  %101 = sext i32 %100 to i64
  %102 = getelementptr inbounds float, float* %56, i64 %101
  %103 = load float, float* %102, align 4
  %104 = load i32, i32* %11, align 4
  %105 = sext i32 %104 to i64
  %106 = getelementptr inbounds float, float* %59, i64 %105
  %107 = load float, float* %106, align 4
  %108 = fdiv float %103, %107
  %109 = load i32, i32* %11, align 4
  %110 = sext i32 %109 to i64
  %111 = getelementptr inbounds float, float* %62, i64 %110
  store float %108, float* %111, align 4
  %112 = load i32, i32* %11, align 4
  %113 = sext i32 %112 to i64
  %114 = getelementptr inbounds float, float* %62, i64 %113
  %115 = load float, float* %114, align 4
  %116 = load float, float* %12, align 4
  %117 = fadd float %116, %115
  store float %117, float* %12, align 4
  br label %118

118:                                              ; preds = %71
  %119 = load i32, i32* %11, align 4
  %120 = add nsw i32 %119, 1
  store i32 %120, i32* %11, align 4
  br label %67

121:                                              ; preds = %67
  %122 = load float, float* %12, align 4
  %123 = fpext float %122 to double
  %124 = call i32 (i8*, ...) @printf(i8* getelementptr inbounds ([6 x i8], [6 x i8]* @.str.3, i64 0, i64 0), double %123)
  %125 = load i8*, i8** %7, align 8
  call void @llvm.stackrestore(i8* %125)
  br label %126

126:                                              ; preds = %121, %49
  br label %127

127:                                              ; preds = %126
  %128 = load i32, i32* %5, align 4
  %129 = add nsw i32 %128, 1
  store i32 %129, i32* %5, align 4
  br label %31

130:                                              ; preds = %31
  %131 = load i8*, i8** %3, align 8
  call void @llvm.stackrestore(i8* %131)
  %132 = load i32, i32* %1, align 4
  ret i32 %132
}

declare dso_local i32 @__isoc99_scanf(i8*, ...) #1

; Function Attrs: nounwind
declare i8* @llvm.stacksave() #2

declare dso_local i32 @printf(i8*, ...) #1

; Function Attrs: nounwind
declare void @llvm.stackrestore(i8*) #2


!llvm.module.flags = !{!0}
!llvm.ident = !{!1}

!0 = !{i32 1, !"wchar_size", i32 4}
!1 = !{!"clang version 10.0.0-4ubuntu1 "}
